target datalayout = "e-m:e-p270:32:32-p271:32:32-p272:64:64-i64:64-i128:128-f80:128-n8:16:32:64-S128"
target triple = "x86_64-pc-linux-gnu"

%struct.FITSHeader = type { i32, i32, i32, i64, i32, i32, [999 x i32], i32, i32, i32, i32, i32, double, double, i32, double, i32, double }

; Function Attrs: nounwind uwtable
define i32 @avpriv_fits_header_init(ptr noundef %0, i32 noundef %1) #0 {
  %3 = alloca ptr, align 8
  %4 = alloca i32, align 4
  store ptr %0, ptr %3, align 8, !tbaa !4
  store i32 %1, ptr %4, align 4, !tbaa !9
  %5 = load i32, ptr %4, align 4, !tbaa !9
  %6 = load ptr, ptr %3, align 8, !tbaa !4
  %7 = getelementptr inbounds nuw %struct.FITSHeader, ptr %6, i32 0, i32 0
  store i32 %5, ptr %7, align 8, !tbaa !11
  %8 = load ptr, ptr %3, align 8, !tbaa !4
  %9 = getelementptr inbounds nuw %struct.FITSHeader, ptr %8, i32 0, i32 1
  store i32 0, ptr %9, align 4, !tbaa !15
  %10 = load ptr, ptr %3, align 8, !tbaa !4
  %11 = getelementptr inbounds nuw %struct.FITSHeader, ptr %10, i32 0, i32 4
  store i32 0, ptr %11, align 8, !tbaa !16
  %12 = load ptr, ptr %3, align 8, !tbaa !4
  %13 = getelementptr inbounds nuw %struct.FITSHeader, ptr %12, i32 0, i32 7
  store i32 0, ptr %13, align 4, !tbaa !17
  %14 = load ptr, ptr %3, align 8, !tbaa !4
  %15 = getelementptr inbounds nuw %struct.FITSHeader, ptr %14, i32 0, i32 8
  store i32 1, ptr %15, align 8, !tbaa !18
  %16 = load ptr, ptr %3, align 8, !tbaa !4
  %17 = getelementptr inbounds nuw %struct.FITSHeader, ptr %16, i32 0, i32 9
  store i32 0, ptr %17, align 4, !tbaa !19
  %18 = load ptr, ptr %3, align 8, !tbaa !4
  %19 = getelementptr inbounds nuw %struct.FITSHeader, ptr %18, i32 0, i32 10
  store i32 0, ptr %19, align 8, !tbaa !20
  %20 = load ptr, ptr %3, align 8, !tbaa !4
  %21 = getelementptr inbounds nuw %struct.FITSHeader, ptr %20, i32 0, i32 11
  store i32 0, ptr %21, align 4, !tbaa !21
  %22 = load ptr, ptr %3, align 8, !tbaa !4
  %23 = getelementptr inbounds nuw %struct.FITSHeader, ptr %22, i32 0, i32 12
  store double 1.000000e+00, ptr %23, align 8, !tbaa !22
  %24 = load ptr, ptr %3, align 8, !tbaa !4
  %25 = getelementptr inbounds nuw %struct.FITSHeader, ptr %24, i32 0, i32 13
  store double 0.000000e+00, ptr %25, align 8, !tbaa !23
  %26 = load ptr, ptr %3, align 8, !tbaa !4
  %27 = getelementptr inbounds nuw %struct.FITSHeader, ptr %26, i32 0, i32 14
  store i32 0, ptr %27, align 8, !tbaa !24
  %28 = load ptr, ptr %3, align 8, !tbaa !4
  %29 = getelementptr inbounds nuw %struct.FITSHeader, ptr %28, i32 0, i32 16
  store i32 0, ptr %29, align 8, !tbaa !25
  ret i32 0
}