; Function Attrs: mustprogress nofree norecurse nosync nounwind willreturn memory(argmem: write) uwtable
define noundef i32 @avpriv_fits_header_init(ptr noundef writeonly captures(none) initializes((0, 8), (24, 28), (4028, 4068), (4080, 4084)) %0, i32 noundef %1) local_unnamed_addr #0 {
  store i32 %1, ptr %0, align 8, !tbaa !4
  %3 = getelementptr inbounds nuw i8, ptr %0, i64 4
  store i32 0, ptr %3, align 4, !tbaa !11
  %4 = getelementptr inbounds nuw i8, ptr %0, i64 24
  store i32 0, ptr %4, align 8, !tbaa !12
  %5 = getelementptr inbounds nuw i8, ptr %0, i64 4028
  store i32 0, ptr %5, align 4, !tbaa !13
  %6 = getelementptr inbounds nuw i8, ptr %0, i64 4032
  store i32 1, ptr %6, align 8, !tbaa !14
  %7 = getelementptr inbounds nuw i8, ptr %0, i64 4036
  store i32 0, ptr %7, align 4, !tbaa !15
  %8 = getelementptr inbounds nuw i8, ptr %0, i64 4040
  store i32 0, ptr %8, align 8, !tbaa !16
  %9 = getelementptr inbounds nuw i8, ptr %0, i64 4044
  store i32 0, ptr %9, align 4, !tbaa !17
  %10 = getelementptr inbounds nuw i8, ptr %0, i64 4048
  store double 1.000000e+00, ptr %10, align 8, !tbaa !18
  %11 = getelementptr inbounds nuw i8, ptr %0, i64 4056
  store double 0.000000e+00, ptr %11, align 8, !tbaa !19
  %12 = getelementptr inbounds nuw i8, ptr %0, i64 4064
  store i32 0, ptr %12, align 8, !tbaa !20
  %13 = getelementptr inbounds nuw i8, ptr %0, i64 4080
  store i32 0, ptr %13, align 8, !tbaa !21
  ret i32 0
}